target datalayout = "e-m:e-p270:32:32-p271:32:32-p272:64:64-i64:64-i128:128-f80:128-n8:16:32:64-S128"
target triple = "x86_64-pc-linux-gnu"

%struct.dump_config = type { i64, i64, i64, ptr, ptr, i64, i64, i64, i64, i8, i32, i64, i64, i64, [4096 x i8] }

; Function Attrs: inlinehint nounwind sspstrong willreturn memory(none) uwtable
define internal zeroext i1 @RB_TEST(i64 noundef %0) #4 {
  %2 = alloca i64, align 8
  store i64 %0, ptr %2, align 8, !tbaa !6
  %3 = load i64, ptr %2, align 8, !tbaa !6
  %4 = and i64 %3, -5
  %5 = icmp ne i64 %4, 0
  ret i1 %5
}

; Function Attrs: nounwind sspstrong uwtable
define internal i64 @objspace_dump_shapes(i64 noundef %0, i64 noundef %1, i64 noundef %2) #0 {
  %4 = alloca i64, align 8
  %5 = alloca i64, align 8
  %6 = alloca i64, align 8
  %7 = alloca %struct.dump_config, align 8
  store i64 %0, ptr %4, align 8, !tbaa !6
  store i64 %1, ptr %5, align 8, !tbaa !6
  store i64 %2, ptr %6, align 8, !tbaa !6
  call void @llvm.lifetime.start.p0(i64 4200, ptr %7) #21
  call void @llvm.memset.p0.i64(ptr align 8 %7, i8 0, i64 4200, i1 false)
  %8 = load i64, ptr %5, align 8, !tbaa !6
  %9 = load i64, ptr %6, align 8, !tbaa !6
  call void @dump_output(ptr noundef %7, i64 noundef %8, i64 noundef 0, i64 noundef 4, i64 noundef %9)
  %10 = load i64, ptr %6, align 8, !tbaa !6
  %11 = call zeroext i1 @RB_TEST(i64 noundef %10) #22
  br i1 %11, label %12, label %13

12:                                               ; preds = %3
  call void @rb_shape_each_shape(ptr noundef @shape_i, ptr noundef %7)
  br label %13

13:                                               ; preds = %12, %3
  %14 = call i64 @dump_result(ptr noundef %7)
  call void @llvm.lifetime.end.p0(i64 4200, ptr %7) #21
  ret i64 %14
}