; Function Attrs: nounwind sspstrong uwtable
define internal i64 @objspace_dump_shapes(i64 %0, i64 noundef %1, i64 noundef %2) #0 {
  %4 = alloca %struct.dump_config, align 8
  call void @llvm.lifetime.start.p0(i64 4200, ptr nonnull %4) #12
  %5 = getelementptr inbounds nuw i8, ptr %4, i64 8
  call void @llvm.memset.p0.i64(ptr noundef nonnull align 8 dereferenceable(4200) %5, i8 0, i64 4192, i1 false)
  call fastcc void @dump_output(ptr noundef %4, i64 noundef %1, i64 noundef 0, i64 noundef 4, i64 noundef %2)
  %6 = and i64 %2, -5
  %.not = icmp eq i64 %6, 0
  br i1 %.not, label %8, label %7

7:                                                ; preds = %3
  call void @rb_shape_each_shape(ptr noundef nonnull @shape_i, ptr noundef nonnull %4) #12
  br label %8

8:                                                ; preds = %7, %3
  %9 = call fastcc i64 @dump_result(ptr noundef %4)
  call void @llvm.lifetime.end.p0(i64 4200, ptr nonnull %4) #12
  ret i64 %9
}